; Function Attrs: mustprogress nofree norecurse nosync nounwind memory(readwrite, inaccessiblemem: none) uwtable
define dso_local void @_ZN27btMultiBodyConstraintSolver13applyDeltaVeeEPffii(ptr noundef nonnull readonly align 8 captures(none) dereferenceable(788) %0, ptr noundef readonly captures(none) %1, float noundef %2, i32 noundef %3, i32 noundef %4) local_unnamed_addr #5 align 2 {
  %6 = icmp sgt i32 %4, 0
  br i1 %6, label %.lr.ph, label %._crit_edge

.lr.ph:                                           ; preds = %5
  %7 = getelementptr inbounds nuw i8, ptr %0, i64 648
  %8 = load ptr, ptr %7, align 8, !tbaa !62
  %9 = sext i32 %3 to i64
  %wide.trip.count = zext nneg i32 %4 to i64
  %invariant.gep = getelementptr float, ptr %8, i64 %9
  br label %10

._crit_edge:                                      ; preds = %10, %5
  ret void

10:                                               ; preds = %.lr.ph, %10
  %indvars.iv = phi i64 [ 0, %.lr.ph ], [ %indvars.iv.next, %10 ]
  %11 = getelementptr inbounds nuw float, ptr %1, i64 %indvars.iv
  %12 = load float, ptr %11, align 4, !tbaa !64
  %gep = getelementptr float, ptr %invariant.gep, i64 %indvars.iv
  %13 = load float, ptr %gep, align 4, !tbaa !64
  %14 = tail call float @llvm.fmuladd.f32(float %12, float %2, float %13)
  store float %14, ptr %gep, align 4, !tbaa !64
  %indvars.iv.next = add nuw nsw i64 %indvars.iv, 1
  %exitcond.not = icmp eq i64 %indvars.iv.next, %wide.trip.count
  br i1 %exitcond.not, label %._crit_edge, label %10, !llvm.loop !76
}